; Function Attrs: mustprogress nounwind uwtable
define internal void @_ZN8facebook5velox6memory12_GLOBAL__N_114NoopArbitratorD2Ev(ptr noundef nonnull align 8 dereferenceable(72) %this) unnamed_addr #5 align 2 personality ptr @__gxx_personality_v0 {
entry:
  store ptr getelementptr inbounds ({ [11 x ptr] }, ptr @_ZTVN8facebook5velox6memory16MemoryArbitratorE, i64 0, i32 0, i64 2), ptr %this, align 8
  %_M_manager.i.i.i = getelementptr inbounds i8, ptr %this, i64 56
  %0 = load ptr, ptr %_M_manager.i.i.i, align 8
  %tobool.not.i.i.i = icmp eq ptr %0, null
  br i1 %tobool.not.i.i.i, label %_ZN8facebook5velox6memory16MemoryArbitratorD2Ev.exit, label %if.then.i.i.i

if.then.i.i.i:                                    ; preds = %entry
  %arbitrationStateCheckCb_.i = getelementptr inbounds i8, ptr %this, i64 40
  %call.i.i.i = invoke noundef zeroext i1 %0(ptr noundef nonnull align 8 dereferenceable(16) %arbitrationStateCheckCb_.i, ptr noundef nonnull align 8 dereferenceable(16) %arbitrationStateCheckCb_.i, i32 noundef 3)
          to label %_ZN8facebook5velox6memory16MemoryArbitratorD2Ev.exit unwind label %terminate.lpad.i.i.i

terminate.lpad.i.i.i:                             ; preds = %if.then.i.i.i
  %1 = landingpad { ptr, i32 }
          catch ptr null
  %2 = extractvalue { ptr, i32 } %1, 0
  tail call void @__clang_call_terminate(ptr %2) #34
  unreachable

_ZN8facebook5velox6memory16MemoryArbitratorD2Ev.exit: ; preds = %entry, %if.then.i.i.i
  ret void
}